target datalayout = "e-m:e-p270:32:32-p271:32:32-p272:64:64-i64:64-i128:128-f80:128-n8:16:32:64-S128"
target triple = "x86_64-pc-linux-gnu"

%struct.AVFilterContext = type { ptr, ptr, ptr, ptr, ptr, i32, ptr, ptr, i32, ptr, ptr, i32, i32, ptr, ptr, ptr, ptr, i32, ptr, i32, i32 }
%struct.FieldMatchContext = type { ptr, ptr, ptr, ptr, ptr, ptr, ptr, [2 x i32], [2 x i32], [2 x i32], i32, i32, i64, i64, i32, i32, i32, i32, i32, i32, i32, i64, double, i32, i32, i32, i32, i32, i32, i32, [4 x ptr], [4 x i32], [4 x ptr], [4 x i32], ptr, i32, i32, ptr }

; Function Attrs: nounwind uwtable
define internal i32 @checkmm(ptr noundef %0, ptr noundef %1, i32 noundef %2, i32 noundef %3, ptr noundef %4, i32 noundef %5) #1 {
  %7 = alloca i32, align 4
  %8 = alloca ptr, align 8
  %9 = alloca ptr, align 8
  %10 = alloca i32, align 4
  %11 = alloca i32, align 4
  %12 = alloca ptr, align 8
  %13 = alloca i32, align 4
  %14 = alloca ptr, align 8
  %15 = alloca i32, align 4
  store ptr %0, ptr %8, align 8, !tbaa !4
  store ptr %1, ptr %9, align 8, !tbaa !96
  store i32 %2, ptr %10, align 4, !tbaa !24
  store i32 %3, ptr %11, align 4, !tbaa !24
  store ptr %4, ptr %12, align 8, !tbaa !145
  store i32 %5, ptr %13, align 4, !tbaa !24
  call void @llvm.lifetime.start.p0(i64 8, ptr %14) #10
  %16 = load ptr, ptr %8, align 8, !tbaa !4
  %17 = getelementptr inbounds nuw %struct.AVFilterContext, ptr %16, i32 0, i32 9
  %18 = load ptr, ptr %17, align 8, !tbaa !9
  store ptr %18, ptr %14, align 8, !tbaa !22
  br label %19

19:                                               ; preds = %6
  %20 = load ptr, ptr %9, align 8, !tbaa !96
  %21 = load i32, ptr %10, align 4, !tbaa !24
  %22 = sext i32 %21 to i64
  %23 = getelementptr inbounds i32, ptr %20, i64 %22
  %24 = load i32, ptr %23, align 4, !tbaa !24
  %25 = icmp slt i32 %24, 0
  br i1 %25, label %26, label %63

26:                                               ; preds = %19
  %27 = load ptr, ptr %12, align 8, !tbaa !145
  %28 = load i32, ptr %10, align 4, !tbaa !24
  %29 = sext i32 %28 to i64
  %30 = getelementptr inbounds ptr, ptr %27, i64 %29
  %31 = load ptr, ptr %30, align 8, !tbaa !49
  %32 = icmp ne ptr %31, null
  br i1 %32, label %51, label %33

33:                                               ; preds = %26
  %34 = load ptr, ptr %8, align 8, !tbaa !4
  %35 = load i32, ptr %10, align 4, !tbaa !24
  %36 = load i32, ptr %13, align 4, !tbaa !24
  %37 = load ptr, ptr %14, align 8, !tbaa !22
  %38 = getelementptr inbounds nuw %struct.FieldMatchContext, ptr %37, i32 0, i32 1
  %39 = load ptr, ptr %38, align 8, !tbaa !37
  %40 = load ptr, ptr %14, align 8, !tbaa !22
  %41 = getelementptr inbounds nuw %struct.FieldMatchContext, ptr %40, i32 0, i32 2
  %42 = load ptr, ptr %41, align 8, !tbaa !38
  %43 = load ptr, ptr %14, align 8, !tbaa !22
  %44 = getelementptr inbounds nuw %struct.FieldMatchContext, ptr %43, i32 0, i32 3
  %45 = load ptr, ptr %44, align 8, !tbaa !39
  %46 = call ptr @create_weave_frame(ptr noundef %34, i32 noundef %35, i32 noundef %36, ptr noundef %39, ptr noundef %42, ptr noundef %45, i32 noundef 0)
  %47 = load ptr, ptr %12, align 8, !tbaa !145
  %48 = load i32, ptr %10, align 4, !tbaa !24
  %49 = sext i32 %48 to i64
  %50 = getelementptr inbounds ptr, ptr %47, i64 %49
  store ptr %46, ptr %50, align 8, !tbaa !49
  br label %51

51:                                               ; preds = %33, %26
  %52 = load ptr, ptr %14, align 8, !tbaa !22
  %53 = load ptr, ptr %12, align 8, !tbaa !145
  %54 = load i32, ptr %10, align 4, !tbaa !24
  %55 = sext i32 %54 to i64
  %56 = getelementptr inbounds ptr, ptr %53, i64 %55
  %57 = load ptr, ptr %56, align 8, !tbaa !49
  %58 = call i32 @calc_combed_score(ptr noundef %52, ptr noundef %57)
  %59 = load ptr, ptr %9, align 8, !tbaa !96
  %60 = load i32, ptr %10, align 4, !tbaa !24
  %61 = sext i32 %60 to i64
  %62 = getelementptr inbounds i32, ptr %59, i64 %61
  store i32 %58, ptr %62, align 4, !tbaa !24
  br label %63

63:                                               ; preds = %51, %19
  br label %64

64:                                               ; preds = %63
  br label %65

65:                                               ; preds = %64
  br label %66

66:                                               ; preds = %65
  %67 = load ptr, ptr %9, align 8, !tbaa !96
  %68 = load i32, ptr %11, align 4, !tbaa !24
  %69 = sext i32 %68 to i64
  %70 = getelementptr inbounds i32, ptr %67, i64 %69
  %71 = load i32, ptr %70, align 4, !tbaa !24
  %72 = icmp slt i32 %71, 0
  br i1 %72, label %73, label %110

73:                                               ; preds = %66
  %74 = load ptr, ptr %12, align 8, !tbaa !145
  %75 = load i32, ptr %11, align 4, !tbaa !24
  %76 = sext i32 %75 to i64
  %77 = getelementptr inbounds ptr, ptr %74, i64 %76
  %78 = load ptr, ptr %77, align 8, !tbaa !49
  %79 = icmp ne ptr %78, null
  br i1 %79, label %98, label %80

80:                                               ; preds = %73
  %81 = load ptr, ptr %8, align 8, !tbaa !4
  %82 = load i32, ptr %11, align 4, !tbaa !24
  %83 = load i32, ptr %13, align 4, !tbaa !24
  %84 = load ptr, ptr %14, align 8, !tbaa !22
  %85 = getelementptr inbounds nuw %struct.FieldMatchContext, ptr %84, i32 0, i32 1
  %86 = load ptr, ptr %85, align 8, !tbaa !37
  %87 = load ptr, ptr %14, align 8, !tbaa !22
  %88 = getelementptr inbounds nuw %struct.FieldMatchContext, ptr %87, i32 0, i32 2
  %89 = load ptr, ptr %88, align 8, !tbaa !38
  %90 = load ptr, ptr %14, align 8, !tbaa !22
  %91 = getelementptr inbounds nuw %struct.FieldMatchContext, ptr %90, i32 0, i32 3
  %92 = load ptr, ptr %91, align 8, !tbaa !39
  %93 = call ptr @create_weave_frame(ptr noundef %81, i32 noundef %82, i32 noundef %83, ptr noundef %86, ptr noundef %89, ptr noundef %92, i32 noundef 0)
  %94 = load ptr, ptr %12, align 8, !tbaa !145
  %95 = load i32, ptr %11, align 4, !tbaa !24
  %96 = sext i32 %95 to i64
  %97 = getelementptr inbounds ptr, ptr %94, i64 %96
  store ptr %93, ptr %97, align 8, !tbaa !49
  br label %98

98:                                               ; preds = %80, %73
  %99 = load ptr, ptr %14, align 8, !tbaa !22
  %100 = load ptr, ptr %12, align 8, !tbaa !145
  %101 = load i32, ptr %11, align 4, !tbaa !24
  %102 = sext i32 %101 to i64
  %103 = getelementptr inbounds ptr, ptr %100, i64 %102
  %104 = load ptr, ptr %103, align 8, !tbaa !49
  %105 = call i32 @calc_combed_score(ptr noundef %99, ptr noundef %104)
  %106 = load ptr, ptr %9, align 8, !tbaa !96
  %107 = load i32, ptr %11, align 4, !tbaa !24
  %108 = sext i32 %107 to i64
  %109 = getelementptr inbounds i32, ptr %106, i64 %108
  store i32 %105, ptr %109, align 4, !tbaa !24
  br label %110

110:                                              ; preds = %98, %66
  br label %111

111:                                              ; preds = %110
  br label %112

112:                                              ; preds = %111
  %113 = load ptr, ptr %9, align 8, !tbaa !96
  %114 = load i32, ptr %11, align 4, !tbaa !24
  %115 = sext i32 %114 to i64
  %116 = getelementptr inbounds i32, ptr %113, i64 %115
  %117 = load i32, ptr %116, align 4, !tbaa !24
  %118 = mul nsw i32 %117, 3
  %119 = load ptr, ptr %9, align 8, !tbaa !96
  %120 = load i32, ptr %10, align 4, !tbaa !24
  %121 = sext i32 %120 to i64
  %122 = getelementptr inbounds i32, ptr %119, i64 %121
  %123 = load i32, ptr %122, align 4, !tbaa !24
  %124 = icmp slt i32 %118, %123
  br i1 %124, label %148, label %125

125:                                              ; preds = %112
  %126 = load ptr, ptr %9, align 8, !tbaa !96
  %127 = load i32, ptr %11, align 4, !tbaa !24
  %128 = sext i32 %127 to i64
  %129 = getelementptr inbounds i32, ptr %126, i64 %128
  %130 = load i32, ptr %129, align 4, !tbaa !24
  %131 = mul nsw i32 %130, 2
  %132 = load ptr, ptr %9, align 8, !tbaa !96
  %133 = load i32, ptr %10, align 4, !tbaa !24
  %134 = sext i32 %133 to i64
  %135 = getelementptr inbounds i32, ptr %132, i64 %134
  %136 = load i32, ptr %135, align 4, !tbaa !24
  %137 = icmp slt i32 %131, %136
  br i1 %137, label %138, label %174

138:                                              ; preds = %125
  %139 = load ptr, ptr %9, align 8, !tbaa !96
  %140 = load i32, ptr %10, align 4, !tbaa !24
  %141 = sext i32 %140 to i64
  %142 = getelementptr inbounds i32, ptr %139, i64 %141
  %143 = load i32, ptr %142, align 4, !tbaa !24
  %144 = load ptr, ptr %14, align 8, !tbaa !22
  %145 = getelementptr inbounds nuw %struct.FieldMatchContext, ptr %144, i32 0, i32 29
  %146 = load i32, ptr %145, align 8, !tbaa !36
  %147 = icmp sgt i32 %143, %146
  br i1 %147, label %148, label %174

148:                                              ; preds = %138, %112
  %149 = load ptr, ptr %9, align 8, !tbaa !96
  %150 = load i32, ptr %11, align 4, !tbaa !24
  %151 = sext i32 %150 to i64
  %152 = getelementptr inbounds i32, ptr %149, i64 %151
  %153 = load i32, ptr %152, align 4, !tbaa !24
  %154 = load ptr, ptr %9, align 8, !tbaa !96
  %155 = load i32, ptr %10, align 4, !tbaa !24
  %156 = sext i32 %155 to i64
  %157 = getelementptr inbounds i32, ptr %154, i64 %156
  %158 = load i32, ptr %157, align 4, !tbaa !24
  %159 = sub nsw i32 %153, %158
  %160 = call i32 @llvm.abs.i32(i32 %159, i1 true)
  %161 = icmp sge i32 %160, 30
  br i1 %161, label %162, label %174

162:                                              ; preds = %148
  %163 = load ptr, ptr %9, align 8, !tbaa !96
  %164 = load i32, ptr %11, align 4, !tbaa !24
  %165 = sext i32 %164 to i64
  %166 = getelementptr inbounds i32, ptr %163, i64 %165
  %167 = load i32, ptr %166, align 4, !tbaa !24
  %168 = load ptr, ptr %14, align 8, !tbaa !22
  %169 = getelementptr inbounds nuw %struct.FieldMatchContext, ptr %168, i32 0, i32 29
  %170 = load i32, ptr %169, align 8, !tbaa !36
  %171 = icmp slt i32 %167, %170
  br i1 %171, label %172, label %174

172:                                              ; preds = %162
  %173 = load i32, ptr %11, align 4, !tbaa !24
  store i32 %173, ptr %7, align 4
  store i32 1, ptr %15, align 4
  br label %176

174:                                              ; preds = %162, %148, %138, %125
  %175 = load i32, ptr %10, align 4, !tbaa !24
  store i32 %175, ptr %7, align 4
  store i32 1, ptr %15, align 4
  br label %176

176:                                              ; preds = %174, %172
  call void @llvm.lifetime.end.p0(i64 8, ptr %14) #10
  %177 = load i32, ptr %7, align 4
  ret i32 %177
}