; Function Attrs: nounwind uwtable
define internal fastcc noundef i32 @checkmm(ptr noundef readonly captures(none) %0, ptr noundef nonnull captures(none) %1, i32 noundef %2, i32 noundef %3, ptr noundef nonnull captures(none) %4, i32 noundef range(i32 0, -1) %5) unnamed_addr #1 {
  %7 = getelementptr inbounds nuw i8, ptr %0, i64 72
  %8 = load ptr, ptr %7, align 8, !tbaa !4
  %9 = sext i32 %2 to i64
  %10 = getelementptr inbounds i32, ptr %1, i64 %9
  %11 = load i32, ptr %10, align 4, !tbaa !48
  %12 = icmp slt i32 %11, 0
  br i1 %12, label %13, label %27

13:                                               ; preds = %6
  %14 = getelementptr inbounds ptr, ptr %4, i64 %9
  %15 = load ptr, ptr %14, align 8, !tbaa !40
  %.not = icmp eq ptr %15, null
  br i1 %.not, label %16, label %24

16:                                               ; preds = %13
  %17 = getelementptr inbounds nuw i8, ptr %8, i64 8
  %18 = load ptr, ptr %17, align 8, !tbaa !32
  %19 = getelementptr inbounds nuw i8, ptr %8, i64 16
  %20 = load ptr, ptr %19, align 8, !tbaa !33
  %21 = getelementptr inbounds nuw i8, ptr %8, i64 24
  %22 = load ptr, ptr %21, align 8, !tbaa !34
  %23 = tail call fastcc ptr @create_weave_frame(ptr noundef nonnull %0, i32 noundef %2, i32 noundef %5, ptr noundef %18, ptr noundef %20, ptr noundef %22, i32 noundef 0)
  store ptr %23, ptr %14, align 8, !tbaa !40
  br label %24

24:                                               ; preds = %16, %13
  %25 = phi ptr [ %23, %16 ], [ %15, %13 ]
  %26 = tail call fastcc i32 @calc_combed_score(ptr noundef %8, ptr noundef %25)
  store i32 %26, ptr %10, align 4, !tbaa !48
  br label %27

27:                                               ; preds = %6, %24
  %28 = phi i32 [ %11, %6 ], [ %26, %24 ]
  %29 = sext i32 %3 to i64
  %30 = getelementptr inbounds i32, ptr %1, i64 %29
  %31 = load i32, ptr %30, align 4, !tbaa !48
  %32 = icmp slt i32 %31, 0
  br i1 %32, label %33, label %47

33:                                               ; preds = %27
  %34 = getelementptr inbounds ptr, ptr %4, i64 %29
  %35 = load ptr, ptr %34, align 8, !tbaa !40
  %.not56 = icmp eq ptr %35, null
  br i1 %.not56, label %36, label %44

36:                                               ; preds = %33
  %37 = getelementptr inbounds nuw i8, ptr %8, i64 8
  %38 = load ptr, ptr %37, align 8, !tbaa !32
  %39 = getelementptr inbounds nuw i8, ptr %8, i64 16
  %40 = load ptr, ptr %39, align 8, !tbaa !33
  %41 = getelementptr inbounds nuw i8, ptr %8, i64 24
  %42 = load ptr, ptr %41, align 8, !tbaa !34
  %43 = tail call fastcc ptr @create_weave_frame(ptr noundef nonnull %0, i32 noundef %3, i32 noundef %5, ptr noundef %38, ptr noundef %40, ptr noundef %42, i32 noundef 0)
  store ptr %43, ptr %34, align 8, !tbaa !40
  br label %44

44:                                               ; preds = %36, %33
  %45 = phi ptr [ %43, %36 ], [ %35, %33 ]
  %46 = tail call fastcc i32 @calc_combed_score(ptr noundef %8, ptr noundef %45)
  store i32 %46, ptr %30, align 4, !tbaa !48
  %.pre = load i32, ptr %10, align 4, !tbaa !48
  br label %47

47:                                               ; preds = %44, %27
  %48 = phi i32 [ %.pre, %44 ], [ %28, %27 ]
  %49 = phi i32 [ %46, %44 ], [ %31, %27 ]
  %50 = mul nuw nsw i32 %49, 3
  %51 = icmp slt i32 %50, %48
  br i1 %51, label %59, label %52

52:                                               ; preds = %47
  %53 = shl nuw nsw i32 %49, 1
  %54 = icmp slt i32 %53, %48
  br i1 %54, label %55, label %67

55:                                               ; preds = %52
  %56 = getelementptr inbounds nuw i8, ptr %8, i64 176
  %57 = load i32, ptr %56, align 8, !tbaa !31
  %58 = icmp sgt i32 %48, %57
  br i1 %58, label %59, label %67

59:                                               ; preds = %55, %47
  %60 = sub nsw i32 %49, %48
  %61 = tail call i32 @llvm.abs.i32(i32 %60, i1 true)
  %62 = icmp samesign ugt i32 %61, 29
  br i1 %62, label %63, label %67

63:                                               ; preds = %59
  %64 = getelementptr inbounds nuw i8, ptr %8, i64 176
  %65 = load i32, ptr %64, align 8, !tbaa !31
  %66 = icmp slt i32 %49, %65
  br i1 %66, label %68, label %67

67:                                               ; preds = %63, %59, %55, %52
  br label %68

68:                                               ; preds = %63, %67
  %.0 = phi i32 [ %2, %67 ], [ %3, %63 ]
  ret i32 %.0
}